target datalayout = "e-m:e-p270:32:32-p271:32:32-p272:64:64-i64:64-i128:128-f80:128-n8:16:32:64-S128"
target triple = "x86_64-pc-linux-gnu"

%struct.dynhds = type { ptr, i64, i64, i64, i64, i64, i32 }
%struct.dynhds_entry = type { ptr, ptr, i64, i64 }

@.str = private unnamed_addr constant [13 x i8] c"%.*s: %.*s\0D\0A\00", align 1

; Function Attrs: nounwind uwtable
define dso_local i32 @Curl_dynhds_h1_dprint(ptr noundef %0, ptr noundef %1) #0 {
  %3 = alloca i32, align 4
  %4 = alloca ptr, align 8
  %5 = alloca ptr, align 8
  %6 = alloca i32, align 4
  %7 = alloca i64, align 8
  %8 = alloca i32, align 4
  store ptr %0, ptr %4, align 8, !tbaa !4
  store ptr %1, ptr %5, align 8, !tbaa !40
  call void @llvm.lifetime.start.p0(i64 4, ptr %6) #5
  store i32 0, ptr %6, align 4, !tbaa !27
  call void @llvm.lifetime.start.p0(i64 8, ptr %7) #5
  %9 = load ptr, ptr %4, align 8, !tbaa !4
  %10 = getelementptr inbounds nuw %struct.dynhds, ptr %9, i32 0, i32 1
  %11 = load i64, ptr %10, align 8, !tbaa !17
  %12 = icmp ne i64 %11, 0
  br i1 %12, label %15, label %13

13:                                               ; preds = %2
  %14 = load i32, ptr %6, align 4, !tbaa !27
  store i32 %14, ptr %3, align 4
  store i32 1, ptr %8, align 4
  br label %68

15:                                               ; preds = %2
  store i64 0, ptr %7, align 8, !tbaa !9
  br label %16

16:                                               ; preds = %63, %15
  %17 = load i64, ptr %7, align 8, !tbaa !9
  %18 = load ptr, ptr %4, align 8, !tbaa !4
  %19 = getelementptr inbounds nuw %struct.dynhds, ptr %18, i32 0, i32 1
  %20 = load i64, ptr %19, align 8, !tbaa !17
  %21 = icmp ult i64 %17, %20
  br i1 %21, label %22, label %66

22:                                               ; preds = %16
  %23 = load ptr, ptr %5, align 8, !tbaa !40
  %24 = load ptr, ptr %4, align 8, !tbaa !4
  %25 = getelementptr inbounds nuw %struct.dynhds, ptr %24, i32 0, i32 0
  %26 = load ptr, ptr %25, align 8, !tbaa !11
  %27 = load i64, ptr %7, align 8, !tbaa !9
  %28 = getelementptr inbounds nuw ptr, ptr %26, i64 %27
  %29 = load ptr, ptr %28, align 8, !tbaa !21
  %30 = getelementptr inbounds nuw %struct.dynhds_entry, ptr %29, i32 0, i32 2
  %31 = load i64, ptr %30, align 8, !tbaa !30
  %32 = trunc i64 %31 to i32
  %33 = load ptr, ptr %4, align 8, !tbaa !4
  %34 = getelementptr inbounds nuw %struct.dynhds, ptr %33, i32 0, i32 0
  %35 = load ptr, ptr %34, align 8, !tbaa !11
  %36 = load i64, ptr %7, align 8, !tbaa !9
  %37 = getelementptr inbounds nuw ptr, ptr %35, i64 %36
  %38 = load ptr, ptr %37, align 8, !tbaa !21
  %39 = getelementptr inbounds nuw %struct.dynhds_entry, ptr %38, i32 0, i32 0
  %40 = load ptr, ptr %39, align 8, !tbaa !32
  %41 = load ptr, ptr %4, align 8, !tbaa !4
  %42 = getelementptr inbounds nuw %struct.dynhds, ptr %41, i32 0, i32 0
  %43 = load ptr, ptr %42, align 8, !tbaa !11
  %44 = load i64, ptr %7, align 8, !tbaa !9
  %45 = getelementptr inbounds nuw ptr, ptr %43, i64 %44
  %46 = load ptr, ptr %45, align 8, !tbaa !21
  %47 = getelementptr inbounds nuw %struct.dynhds_entry, ptr %46, i32 0, i32 3
  %48 = load i64, ptr %47, align 8, !tbaa !36
  %49 = trunc i64 %48 to i32
  %50 = load ptr, ptr %4, align 8, !tbaa !4
  %51 = getelementptr inbounds nuw %struct.dynhds, ptr %50, i32 0, i32 0
  %52 = load ptr, ptr %51, align 8, !tbaa !11
  %53 = load i64, ptr %7, align 8, !tbaa !9
  %54 = getelementptr inbounds nuw ptr, ptr %52, i64 %53
  %55 = load ptr, ptr %54, align 8, !tbaa !21
  %56 = getelementptr inbounds nuw %struct.dynhds_entry, ptr %55, i32 0, i32 1
  %57 = load ptr, ptr %56, align 8, !tbaa !35
  %58 = call i32 (ptr, ptr, ...) @Curl_dyn_addf(ptr noundef %23, ptr noundef @.str, i32 noundef %32, ptr noundef %40, i32 noundef %49, ptr noundef %57)
  store i32 %58, ptr %6, align 4, !tbaa !27
  %59 = load i32, ptr %6, align 4, !tbaa !27
  %60 = icmp ne i32 %59, 0
  br i1 %60, label %61, label %62

61:                                               ; preds = %22
  br label %66

62:                                               ; preds = %22
  br label %63

63:                                               ; preds = %62
  %64 = load i64, ptr %7, align 8, !tbaa !9
  %65 = add i64 %64, 1
  store i64 %65, ptr %7, align 8, !tbaa !9
  br label %16, !llvm.loop !42

66:                                               ; preds = %61, %16
  %67 = load i32, ptr %6, align 4, !tbaa !27
  store i32 %67, ptr %3, align 4
  store i32 1, ptr %8, align 4
  br label %68

68:                                               ; preds = %66, %13
  call void @llvm.lifetime.end.p0(i64 8, ptr %7) #5
  call void @llvm.lifetime.end.p0(i64 4, ptr %6) #5
  %69 = load i32, ptr %3, align 4
  ret i32 %69
}